(lp0
(lp1
F0.0
aF2077.0
aF19686.0
aF22559.0
aF26175.0
aVvisible
p2
aI3
aa(lp3
F0.0
aF2330.0
aF19565.0
aF22311.0
aF26312.0
ag2
aI3
aa(lp4
F0.0
aF2853.0
aF22413.0
aF21558.0
aF23733.0
ag2
aI3
aa(lp5
F0.0
aF2913.0
aF25345.0
aF20660.0
aF21917.0
ag2
aI3
aa(lp6
F0.0
aF3757.0
aF22755.0
aF19556.0
aF29578.0
ag2
aI3
aa(lp7
F0.0
aF12611.0
aF14690.0
aF37223.0
aF11942.0
ag2
aI3
aa(lp8
F0.0
aF2183.0
aF21692.0
aF23168.0
aF23362.0
ag2
aI3
aa(lp9
F0.0
aF273.0
aF20321.0
aF18584.0
aF29691.0
ag2
aI3
aa(lp10
F0.0
aF520.0
aF21304.0
aF18588.0
aF28449.0
ag2
aI3
aa(lp11
F0.0
aF2098.0
aF9265.0
aF41358.0
aF19884.0
ag2
aI3
aa.