(lp0
(lp1
F76800.0
aF0.0
aF0.0
aF0.0
aF0.0
aVdark
p2
aI1
aa(lp3
F76800.0
aF0.0
aF0.0
aF0.0
aF0.0
ag2
aI1
aa(lp4
F76800.0
aF0.0
aF0.0
aF0.0
aF0.0
ag2
aI1
aa(lp5
F76800.0
aF0.0
aF0.0
aF0.0
aF0.0
ag2
aI1
aa(lp6
F76800.0
aF0.0
aF0.0
aF0.0
aF0.0
ag2
aI1
aa.