(lp0
(lp1
F0.0
aF8773.0
aF16380.0
aF34487.0
aF15589.0
aVvisible
p2
aI3
aa(lp3
F0.0
aF8530.0
aF16654.0
aF34264.0
aF15777.0
ag2
aI3
aa(lp4
F0.0
aF7848.0
aF18238.0
aF34216.0
aF14928.0
ag2
aI3
aa(lp5
F0.0
aF5458.0
aF18847.0
aF32891.0
aF18062.0
ag2
aI3
aa(lp6
F0.0
aF3288.0
aF17118.0
aF36736.0
aF18254.0
ag2
aI3
aa(lp7
F0.0
aF2225.0
aF15609.0
aF42910.0
aF14571.0
ag2
aI3
aa(lp8
F0.0
aF2268.0
aF14571.0
aF55449.0
aF4292.0
ag2
aI3
aa(lp9
F0.0
aF1904.0
aF7091.0
aF62429.0
aF4986.0
ag2
aI3
aa(lp10
F0.0
aF2096.0
aF9401.0
aF60662.0
aF4353.0
ag2
aI3
aa(lp11
F0.0
aF2942.0
aF16838.0
aF52186.0
aF4536.0
ag2
aI3
aa(lp12
F0.0
aF3059.0
aF16543.0
aF52398.0
aF4484.0
ag2
aI3
aa(lp13
F0.0
aF4596.0
aF13901.0
aF47682.0
aF10346.0
ag2
aI3
aa(lp14
F0.0
aF5689.0
aF15995.0
aF33509.0
aF9561.0
ag2
aI3
aa(lp15
F0.0
aF5093.0
aF15456.0
aF33402.0
aF10549.0
ag2
aI3
aa(lp16
F227.0
aF5610.0
aF20604.0
aF30398.0
aF18734.0
ag2
aI3
aa(lp17
F0.0
aF1862.0
aF14222.0
aF49019.0
aF8074.0
ag2
aI3
aa(lp18
F0.0
aF3830.0
aF15699.0
aF46153.0
aF7441.0
ag2
aI3
aa.