(lp0
(lp1
F26787.0
aF47125.0
aF2888.0
aF0.0
aF0.0
aVdim
p2
aI2
aa(lp3
F24338.0
aF49475.0
aF2987.0
aF0.0
aF0.0
ag2
aI2
aa(lp4
F36473.0
aF37100.0
aF3227.0
aF0.0
aF0.0
ag2
aI2
aa(lp5
F35043.0
aF35086.0
aF6671.0
aF0.0
aF0.0
ag2
aI2
aa(lp6
F18873.0
aF48601.0
aF6439.0
aF1950.0
aF404.0
ag2
aI2
aa(lp7
F8886.0
aF36324.0
aF11641.0
aF8801.0
aF7491.0
ag2
aI2
aa(lp8
F8822.0
aF51164.0
aF10182.0
aF2755.0
aF2612.0
ag2
aI2
aa(lp9
F25511.0
aF46014.0
aF5275.0
aF0.0
aF0.0
ag2
aI2
aa(lp10
F27197.0
aF43901.0
aF5702.0
aF0.0
aF0.0
ag2
aI2
aa(lp11
F27417.0
aF46003.0
aF3380.0
aF0.0
aF0.0
ag2
aI2
aa(lp12
F16020.0
aF57638.0
aF3142.0
aF0.0
aF0.0
ag2
aI2
aa(lp13
F1000.0
aF72087.0
aF3713.0
aF0.0
aF0.0
ag2
aI2
aa(lp14
F2232.0
aF70798.0
aF3770.0
aF0.0
aF0.0
ag2
aI2
aa(lp15
F16579.0
aF52853.0
aF6765.0
aF603.0
aF0.0
ag2
aI2
aa(lp16
F15820.0
aF52946.0
aF7338.0
aF696.0
aF0.0
ag2
aI2
aa(lp17
F5947.0
aF63466.0
aF7386.0
aF1.0
aF0.0
ag2
aI2
aa(lp18
F2757.0
aF66120.0
aF7922.0
aF1.0
aF0.0
ag2
aI2
aa(lp19
F16357.0
aF51419.0
aF7434.0
aF1590.0
aF0.0
ag2
aI2
aa(lp20
F36002.0
aF38760.0
aF2038.0
aF0.0
aF0.0
ag2
aI2
aa(lp21
F22554.0
aF52173.0
aF2073.0
aF0.0
aF0.0
ag2
aI2
aa(lp22
F68897.0
aF7903.0
aF0.0
aF0.0
aF0.0
aVdim
p23
aI2
aa(lp24
F64972.0
aF11828.0
aF0.0
aF0.0
aF0.0
ag23
aI2
aa(lp25
F9021.0
aF24127.0
aF8545.0
aF13675.0
aF14506.0
ag23
aI2
aa(lp26
F55687.0
aF21113.0
aF0.0
aF0.0
aF0.0
ag23
aI2
aa(lp27
F54733.0
aF22067.0
aF0.0
aF0.0
aF0.0
ag23
aI2
aa(lp28
F4589.0
aF26939.0
aF7539.0
aF13648.0
aF16088.0
ag23
aI2
aa(lp29
F9925.0
aF23486.0
aF15254.0
aF16889.0
aF8964.0
ag23
aI2
aa(lp30
F15988.0
aF28059.0
aF6355.0
aF5418.0
aF13980.0
ag23
aI2
aa(lp31
F61749.0
aF15051.0
aF0.0
aF0.0
aF0.0
ag23
aI2
aa(lp32
F57039.0
aF19761.0
aF0.0
aF0.0
aF0.0
ag23
aI2
aa(lp33
F15422.0
aF51180.0
aF10194.0
aF4.0
aF0.0
ag23
aI2
aa(lp34
F15877.0
aF50432.0
aF10487.0
aF4.0
aF0.0
ag23
aI2
aa(lp35
F14485.0
aF51086.0
aF11193.0
aF36.0
aF0.0
ag23
aI2
aa.