(lp0
(lp1
F33.0
aF6889.0
aF24779.0
aF24112.0
aF11713.0
aVbright
p2
aI4
aa(lp3
F518.0
aF7286.0
aF23950.0
aF24103.0
aF11722.0
ag2
aI4
aa(lp4
F194.0
aF7768.0
aF23609.0
aF24201.0
aF11778.0
ag2
aI4
aa(lp5
F0.0
aF0.0
aF0.0
aF4.0
aF13427.0
ag2
aI4
aa(lp6
F0.0
aF0.0
aF0.0
aF0.0
aF6331.0
ag2
aI4
aa(lp7
F0.0
aF0.0
aF0.0
aF113.0
aF17424.0
ag2
aI4
aa(lp8
F0.0
aF0.0
aF0.0
aF0.0
aF14662.0
ag2
aI4
aa(lp9
F0.0
aF0.0
aF12328.0
aF12319.0
aF11501.0
ag2
aI4
aa(lp10
F0.0
aF12481.0
aF12577.0
aF11501.0
aF11114.0
ag2
aI4
aa.